target datalayout = "e-m:e-p270:32:32-p271:32:32-p272:64:64-i64:64-i128:128-f80:128-n8:16:32:64-S128"
target triple = "x86_64-unknown-linux-gnu"

%"class.absl::base_internal::AtomicHook" = type { %"struct.std::atomic.0", ptr }
%"struct.std::atomic.0" = type { %"struct.std::__atomic_base.1" }
%"struct.std::__atomic_base.1" = type { ptr }
%"class.absl::Status" = type { i64 }
%"class.std::basic_string_view" = type { i64, ptr }

@.str = private unnamed_addr constant [64 x i8] c"An OK status is not a valid constructor argument to StatusOr<T>\00", align 1
@.str.1 = private unnamed_addr constant [123 x i8] c"generated/home/dtcxzyw/WorkSpace/Projects/compilers/llvm-opt-benchmark/bench/abseil-cpp/abseil-cpp/absl/status/statusor.cc\00", align 1
@_ZN4absl16raw_log_internal21internal_log_functionB5cxx11E = external global %"class.absl::base_internal::AtomicHook", align 8

; Function Attrs: mustprogress nounwind uwtable
define linkonce_odr dso_local noundef ptr @_ZN4absl6Status12RepToPointerEm(i64 noundef %rep) #5 comdat align 2 {
entry:
  %rep.addr = alloca i64, align 8
  store i64 %rep, ptr %rep.addr, align 8
  %0 = load i64, ptr %rep.addr, align 8
  %1 = inttoptr i64 %0 to ptr
  ret ptr %1
}

; Function Attrs: mustprogress nounwind uwtable
define linkonce_odr dso_local noundef zeroext i1 @_ZN4absl6Status9IsInlinedEm(i64 noundef %rep) #5 comdat align 2 {
entry:
  %rep.addr = alloca i64, align 8
  store i64 %rep, ptr %rep.addr, align 8
  %0 = load i64, ptr %rep.addr, align 8
  %and = and i64 %0, 1
  %cmp = icmp ne i64 %and, 0
  ret i1 %cmp
}

; Function Attrs: mustprogress nounwind uwtable
define linkonce_odr dso_local noundef i64 @_ZN4absl6Status16CodeToInlinedRepENS_10StatusCodeE(i32 noundef %code) #5 comdat align 2 {
entry:
  %code.addr = alloca i32, align 4
  store i32 %code, ptr %code.addr, align 4
  %0 = load i32, ptr %code.addr, align 4
  %conv = sext i32 %0 to i64
  %shl = shl i64 %conv, 2
  %add = add i64 %shl, 1
  ret i64 %add
}

; Function Attrs: mustprogress uwtable
define linkonce_odr dso_local void @_ZN4absl6Status5UnrefEm(i64 noundef %rep) #4 comdat align 2 {
entry:
  %rep.addr = alloca i64, align 8
  store i64 %rep, ptr %rep.addr, align 8
  %0 = load i64, ptr %rep.addr, align 8
  %call = call noundef zeroext i1 @_ZN4absl6Status9IsInlinedEm(i64 noundef %0)
  br i1 %call, label %if.end, label %if.then

if.then:                                          ; preds = %entry
  %1 = load i64, ptr %rep.addr, align 8
  %call1 = call noundef ptr @_ZN4absl6Status12RepToPointerEm(i64 noundef %1)
  call void @_ZNK4absl15status_internal9StatusRep5UnrefEv(ptr noundef nonnull align 8 dereferenceable(48) %call1)
  br label %if.end

if.end:                                           ; preds = %if.then, %entry
  ret void
}

; Function Attrs: mustprogress uwtable
define linkonce_odr dso_local noundef i64 @_ZN4absl6Status12MovedFromRepEv() #4 comdat align 2 {
entry:
  %call = call noundef i64 @_ZN4absl6Status16CodeToInlinedRepENS_10StatusCodeE(i32 noundef 13)
  %or = or i64 %call, 2
  ret i64 %or
}

; Function Attrs: mustprogress nounwind uwtable
define linkonce_odr dso_local noundef i64 @_ZNSt11char_traitsIcE6lengthEPKc(ptr noundef %__s) #5 comdat align 2 {
entry:
  %__s.addr = alloca ptr, align 8
  store ptr %__s, ptr %__s.addr, align 8
  %0 = load ptr, ptr %__s.addr, align 8
  %call = call i64 @strlen(ptr noundef %0) #3
  ret i64 %call
}

; Function Attrs: mustprogress uwtable
define linkonce_odr dso_local noundef nonnull align 8 dereferenceable(8) ptr @_ZN4absl6StatusaSEOS0_(ptr noundef nonnull align 8 dereferenceable(8) %this, ptr noundef nonnull align 8 dereferenceable(8) %x) #4 comdat align 2 {
entry:
  %this.addr = alloca ptr, align 8
  %x.addr = alloca ptr, align 8
  %old_rep = alloca i64, align 8
  store ptr %this, ptr %this.addr, align 8
  store ptr %x, ptr %x.addr, align 8
  %this1 = load ptr, ptr %this.addr, align 8
  %rep_ = getelementptr inbounds %"class.absl::Status", ptr %this1, i32 0, i32 0
  %0 = load i64, ptr %rep_, align 8
  store i64 %0, ptr %old_rep, align 8
  %1 = load ptr, ptr %x.addr, align 8
  %rep_2 = getelementptr inbounds %"class.absl::Status", ptr %1, i32 0, i32 0
  %2 = load i64, ptr %rep_2, align 8
  %3 = load i64, ptr %old_rep, align 8
  %cmp = icmp ne i64 %2, %3
  br i1 %cmp, label %if.then, label %if.end

if.then:                                          ; preds = %entry
  %4 = load ptr, ptr %x.addr, align 8
  %rep_3 = getelementptr inbounds %"class.absl::Status", ptr %4, i32 0, i32 0
  %5 = load i64, ptr %rep_3, align 8
  %rep_4 = getelementptr inbounds %"class.absl::Status", ptr %this1, i32 0, i32 0
  store i64 %5, ptr %rep_4, align 8
  %call = call noundef i64 @_ZN4absl6Status12MovedFromRepEv()
  %6 = load ptr, ptr %x.addr, align 8
  %rep_5 = getelementptr inbounds %"class.absl::Status", ptr %6, i32 0, i32 0
  store i64 %call, ptr %rep_5, align 8
  %7 = load i64, ptr %old_rep, align 8
  call void @_ZN4absl6Status5UnrefEm(i64 noundef %7)
  br label %if.end

if.end:                                           ; preds = %if.then, %entry
  ret ptr %this1
}

; Function Attrs: mustprogress nounwind uwtable
define linkonce_odr dso_local void @_ZNSt17basic_string_viewIcSt11char_traitsIcEEC2EPKc(ptr noundef nonnull align 8 dereferenceable(16) %this, ptr noundef nonnull %__str) unnamed_addr #5 comdat align 2 personality ptr @__gxx_personality_v0 {
entry:
  %this.addr = alloca ptr, align 8
  %__str.addr = alloca ptr, align 8
  store ptr %this, ptr %this.addr, align 8
  store ptr %__str, ptr %__str.addr, align 8
  %this1 = load ptr, ptr %this.addr, align 8
  %_M_len = getelementptr inbounds %"class.std::basic_string_view", ptr %this1, i32 0, i32 0
  %0 = load ptr, ptr %__str.addr, align 8
  %call = invoke noundef i64 @_ZNSt11char_traitsIcE6lengthEPKc(ptr noundef %0)
          to label %invoke.cont unwind label %terminate.lpad

invoke.cont:                                      ; preds = %entry
  store i64 %call, ptr %_M_len, align 8
  %_M_str = getelementptr inbounds %"class.std::basic_string_view", ptr %this1, i32 0, i32 1
  %1 = load ptr, ptr %__str.addr, align 8
  store ptr %1, ptr %_M_str, align 8
  ret void

terminate.lpad:                                   ; preds = %entry
  %2 = landingpad { ptr, i32 }
          catch ptr null
  %3 = extractvalue { ptr, i32 } %2, 0
  call void @__clang_call_terminate(ptr %3) #10
  unreachable
}

; Function Attrs: mustprogress uwtable
define dso_local void @_ZN4absl17internal_statusor6Helper26HandleInvalidStatusCtorArgEPNS_6StatusE(ptr noundef %status) #4 align 2 personality ptr @__gxx_personality_v0 {
entry:
  %status.addr = alloca ptr, align 8
  %kMessage = alloca ptr, align 8
  %absl_raw_log_internal_filename = alloca ptr, align 8
  %ref.tmp = alloca i32, align 4
  %ref.tmp1 = alloca i32, align 4
  %ref.tmp2 = alloca %"class.absl::Status", align 8
  %agg.tmp = alloca %"class.std::basic_string_view", align 8
  %exn.slot = alloca ptr, align 8
  %ehselector.slot = alloca i32, align 4
  store ptr %status, ptr %status.addr, align 8
  store ptr @.str, ptr %kMessage, align 8
  br label %do.body

do.body:                                          ; preds = %entry
  store ptr @.str.1, ptr %absl_raw_log_internal_filename, align 8
  store i32 2, ptr %ref.tmp, align 4
  store i32 77, ptr %ref.tmp1, align 4
  call void @_ZNK4absl13base_internal10AtomicHookIPFvNS_11LogSeverityEPKciRKNSt7__cxx1112basic_stringIcSt11char_traitsIcESaIcEEEEEclIJS2_RKS4_iRS4_EEEvDpOT_(ptr noundef nonnull align 8 dereferenceable(16) @_ZN4absl16raw_log_internal21internal_log_functionB5cxx11E, ptr noundef nonnull align 4 dereferenceable(4) %ref.tmp, ptr noundef nonnull align 8 dereferenceable(8) %absl_raw_log_internal_filename, ptr noundef nonnull align 4 dereferenceable(4) %ref.tmp1, ptr noundef nonnull align 8 dereferenceable(8) %kMessage)
  br label %do.end

do.end:                                           ; preds = %do.body
  %0 = load ptr, ptr %kMessage, align 8
  call void @_ZNSt17basic_string_viewIcSt11char_traitsIcEEC2EPKc(ptr noundef nonnull align 8 dereferenceable(16) %agg.tmp, ptr noundef %0) #3
  %1 = getelementptr inbounds { i64, ptr }, ptr %agg.tmp, i32 0, i32 0
  %2 = load i64, ptr %1, align 8
  %3 = getelementptr inbounds { i64, ptr }, ptr %agg.tmp, i32 0, i32 1
  %4 = load ptr, ptr %3, align 8
  %call = call i64 @_ZN4absl13InternalErrorESt17basic_string_viewIcSt11char_traitsIcEE(i64 %2, ptr %4)
  %coerce.dive = getelementptr inbounds %"class.absl::Status", ptr %ref.tmp2, i32 0, i32 0
  store i64 %call, ptr %coerce.dive, align 8
  %5 = load ptr, ptr %status.addr, align 8
  %call3 = invoke noundef nonnull align 8 dereferenceable(8) ptr @_ZN4absl6StatusaSEOS0_(ptr noundef nonnull align 8 dereferenceable(8) %5, ptr noundef nonnull align 8 dereferenceable(8) %ref.tmp2)
          to label %invoke.cont unwind label %lpad

invoke.cont:                                      ; preds = %do.end
  call void @_ZN4absl6StatusD2Ev(ptr noundef nonnull align 8 dereferenceable(8) %ref.tmp2) #3
  ret void

lpad:                                             ; preds = %do.end
  %6 = landingpad { ptr, i32 }
          cleanup
  %7 = extractvalue { ptr, i32 } %6, 0
  store ptr %7, ptr %exn.slot, align 8
  %8 = extractvalue { ptr, i32 } %6, 1
  store i32 %8, ptr %ehselector.slot, align 4
  call void @_ZN4absl6StatusD2Ev(ptr noundef nonnull align 8 dereferenceable(8) %ref.tmp2) #3
  br label %eh.resume

eh.resume:                                        ; preds = %lpad
  %exn = load ptr, ptr %exn.slot, align 8
  %sel = load i32, ptr %ehselector.slot, align 4
  %lpad.val = insertvalue { ptr, i32 } poison, ptr %exn, 0
  %lpad.val4 = insertvalue { ptr, i32 } %lpad.val, i32 %sel, 1
  resume { ptr, i32 } %lpad.val4
}