; Function Attrs: mustprogress uwtable
define dso_local void @_ZN4absl17internal_statusor6Helper26HandleInvalidStatusCtorArgEPNS_6StatusE(ptr nocapture noundef %status) local_unnamed_addr #4 align 2 personality ptr @__gxx_personality_v0 {
entry:
  %kMessage = alloca ptr, align 8
  %absl_raw_log_internal_filename = alloca ptr, align 8
  %ref.tmp = alloca i32, align 4
  %ref.tmp1 = alloca i32, align 4
  %ref.tmp2 = alloca %"class.absl::Status", align 8
  store ptr @.str, ptr %kMessage, align 8
  store ptr @.str.1, ptr %absl_raw_log_internal_filename, align 8
  store i32 2, ptr %ref.tmp, align 4
  store i32 77, ptr %ref.tmp1, align 4
  call void @_ZNK4absl13base_internal10AtomicHookIPFvNS_11LogSeverityEPKciRKNSt7__cxx1112basic_stringIcSt11char_traitsIcESaIcEEEEEclIJS2_RKS4_iRS4_EEEvDpOT_(ptr noundef nonnull align 8 dereferenceable(16) @_ZN4absl16raw_log_internal21internal_log_functionB5cxx11E, ptr noundef nonnull align 4 dereferenceable(4) %ref.tmp, ptr noundef nonnull align 8 dereferenceable(8) %absl_raw_log_internal_filename, ptr noundef nonnull align 4 dereferenceable(4) %ref.tmp1, ptr noundef nonnull align 8 dereferenceable(8) %kMessage)
  %0 = load ptr, ptr %kMessage, align 8
  %call.i.i = call noundef i64 @strlen(ptr noundef nonnull dereferenceable(1) %0) #13
  %call = call i64 @_ZN4absl13InternalErrorESt17basic_string_viewIcSt11char_traitsIcEE(i64 %call.i.i, ptr %0)
  store i64 %call, ptr %ref.tmp2, align 8
  %1 = load i64, ptr %status, align 8
  %cmp.not.i = icmp eq i64 %call, %1
  br i1 %cmp.not.i, label %invoke.cont, label %if.then.i

if.then.i:                                        ; preds = %entry
  store i64 %call, ptr %status, align 8
  store i64 55, ptr %ref.tmp2, align 8
  %and.i.i.i = and i64 %1, 1
  %cmp.i.not.i.i = icmp eq i64 %and.i.i.i, 0
  br i1 %cmp.i.not.i.i, label %if.then.i.i, label %_ZN4absl6StatusD2Ev.exit

if.then.i.i:                                      ; preds = %if.then.i
  %2 = inttoptr i64 %1 to ptr
  invoke void @_ZNK4absl15status_internal9StatusRep5UnrefEv(ptr noundef nonnull align 8 dereferenceable(48) %2)
          to label %_ZN4absl6StatusD2Ev.exit unwind label %lpad

invoke.cont:                                      ; preds = %entry
  %and.i.i.i1 = and i64 %call, 1
  %cmp.i.not.i.i2 = icmp eq i64 %and.i.i.i1, 0
  br i1 %cmp.i.not.i.i2, label %if.then.i.i3, label %_ZN4absl6StatusD2Ev.exit

if.then.i.i3:                                     ; preds = %invoke.cont
  %3 = inttoptr i64 %call to ptr
  invoke void @_ZNK4absl15status_internal9StatusRep5UnrefEv(ptr noundef nonnull align 8 dereferenceable(48) %3)
          to label %_ZN4absl6StatusD2Ev.exit unwind label %terminate.lpad.i

terminate.lpad.i:                                 ; preds = %if.then.i.i3
  %4 = landingpad { ptr, i32 }
          catch ptr null
  %5 = extractvalue { ptr, i32 } %4, 0
  call void @__clang_call_terminate(ptr %5) #14
  unreachable

_ZN4absl6StatusD2Ev.exit:                         ; preds = %if.then.i.i, %if.then.i, %invoke.cont, %if.then.i.i3
  ret void

lpad:                                             ; preds = %if.then.i.i
  %6 = landingpad { ptr, i32 }
          cleanup
  call void @_ZN4absl6StatusD2Ev(ptr noundef nonnull align 8 dereferenceable(8) %ref.tmp2) #13
  resume { ptr, i32 } %6
}